target datalayout = "e-m:e-p270:32:32-p271:32:32-p272:64:64-i64:64-i128:128-f80:128-n8:16:32:64-S128"
target triple = "x86_64-pc-linux-gnu"

; Function Attrs: inlinehint nounwind uwtable
define internal i32 @norm__(i64 noundef %0, i32 noundef %1) #3 {
  %3 = alloca i32, align 4
  %4 = alloca i64, align 8
  %5 = alloca i32, align 4
  store i64 %0, ptr %4, align 8, !tbaa !32
  store i32 %1, ptr %5, align 4, !tbaa !34
  %6 = load i32, ptr %5, align 4, !tbaa !34
  %7 = icmp sgt i32 %6, 0
  br i1 %7, label %8, label %19

8:                                                ; preds = %2
  %9 = load i64, ptr %4, align 8, !tbaa !32
  %10 = load i32, ptr %5, align 4, !tbaa !34
  %11 = sub nsw i32 %10, 1
  %12 = zext i32 %11 to i64
  %13 = shl i64 1, %12
  %14 = add nsw i64 %9, %13
  %15 = load i32, ptr %5, align 4, !tbaa !34
  %16 = zext i32 %15 to i64
  %17 = ashr i64 %14, %16
  %18 = trunc i64 %17 to i32
  store i32 %18, ptr %3, align 4
  br label %22

19:                                               ; preds = %2
  %20 = load i64, ptr %4, align 8, !tbaa !32
  %21 = trunc i64 %20 to i32
  store i32 %21, ptr %3, align 4
  br label %22

22:                                               ; preds = %19, %8
  %23 = load i32, ptr %3, align 4
  ret i32 %23
}

; Function Attrs: inlinehint nounwind uwtable
define internal i32 @mul__(i32 noundef %0, i32 noundef %1, i32 noundef %2) #3 {
  %4 = alloca i32, align 4
  %5 = alloca i32, align 4
  %6 = alloca i32, align 4
  store i32 %0, ptr %4, align 4, !tbaa !34
  store i32 %1, ptr %5, align 4, !tbaa !34
  store i32 %2, ptr %6, align 4, !tbaa !34
  %7 = load i32, ptr %4, align 4, !tbaa !34
  %8 = sext i32 %7 to i64
  %9 = load i32, ptr %5, align 4, !tbaa !34
  %10 = sext i32 %9 to i64
  %11 = mul nsw i64 %8, %10
  %12 = load i32, ptr %6, align 4, !tbaa !34
  %13 = call i32 @norm__(i64 noundef %11, i32 noundef %12)
  ret i32 %13
}

; Function Attrs: inlinehint nounwind uwtable
define internal i32 @mul23(i32 noundef %0, i32 noundef %1) #3 {
  %3 = alloca i32, align 4
  %4 = alloca i32, align 4
  store i32 %0, ptr %3, align 4, !tbaa !34
  store i32 %1, ptr %4, align 4, !tbaa !34
  %5 = load i32, ptr %3, align 4, !tbaa !34
  %6 = load i32, ptr %4, align 4, !tbaa !34
  %7 = call i32 @mul__(i32 noundef %5, i32 noundef %6, i32 noundef 23)
  ret i32 %7
}

; Function Attrs: nounwind uwtable
define internal void @dmix_sub_xch_c(ptr noundef %0, ptr noundef %1, ptr noundef %2, i64 noundef %3) #1 {
  %5 = alloca ptr, align 8
  %6 = alloca ptr, align 8
  %7 = alloca ptr, align 8
  %8 = alloca i64, align 8
  %9 = alloca i32, align 4
  %10 = alloca i32, align 4
  store ptr %0, ptr %5, align 8, !tbaa !28
  store ptr %1, ptr %6, align 8, !tbaa !28
  store ptr %2, ptr %7, align 8, !tbaa !28
  store i64 %3, ptr %8, align 8, !tbaa !32
  call void @llvm.lifetime.start.p0(i64 4, ptr %9) #7
  store i32 0, ptr %9, align 4, !tbaa !34
  br label %11

11:                                               ; preds = %37, %4
  %12 = load i32, ptr %9, align 4, !tbaa !34
  %13 = sext i32 %12 to i64
  %14 = load i64, ptr %8, align 8, !tbaa !32
  %15 = icmp slt i64 %13, %14
  br i1 %15, label %16, label %40

16:                                               ; preds = %11
  call void @llvm.lifetime.start.p0(i64 4, ptr %10) #7
  %17 = load ptr, ptr %7, align 8, !tbaa !28
  %18 = load i32, ptr %9, align 4, !tbaa !34
  %19 = sext i32 %18 to i64
  %20 = getelementptr inbounds i32, ptr %17, i64 %19
  %21 = load i32, ptr %20, align 4, !tbaa !34
  %22 = call i32 @mul23(i32 noundef %21, i32 noundef 5931520)
  store i32 %22, ptr %10, align 4, !tbaa !34
  %23 = load i32, ptr %10, align 4, !tbaa !34
  %24 = load ptr, ptr %5, align 8, !tbaa !28
  %25 = load i32, ptr %9, align 4, !tbaa !34
  %26 = sext i32 %25 to i64
  %27 = getelementptr inbounds i32, ptr %24, i64 %26
  %28 = load i32, ptr %27, align 4, !tbaa !34
  %29 = sub nsw i32 %28, %23
  store i32 %29, ptr %27, align 4, !tbaa !34
  %30 = load i32, ptr %10, align 4, !tbaa !34
  %31 = load ptr, ptr %6, align 8, !tbaa !28
  %32 = load i32, ptr %9, align 4, !tbaa !34
  %33 = sext i32 %32 to i64
  %34 = getelementptr inbounds i32, ptr %31, i64 %33
  %35 = load i32, ptr %34, align 4, !tbaa !34
  %36 = sub nsw i32 %35, %30
  store i32 %36, ptr %34, align 4, !tbaa !34
  call void @llvm.lifetime.end.p0(i64 4, ptr %10) #7
  br label %37

37:                                               ; preds = %16
  %38 = load i32, ptr %9, align 4, !tbaa !34
  %39 = add nsw i32 %38, 1
  store i32 %39, ptr %9, align 4, !tbaa !34
  br label %11, !llvm.loop !75

40:                                               ; preds = %11
  call void @llvm.lifetime.end.p0(i64 4, ptr %9) #7
  ret void
}