; Function Attrs: nofree norecurse nosync nounwind memory(argmem: readwrite) uwtable
define internal void @dmix_sub_xch_c(ptr noundef captures(none) %0, ptr noundef captures(none) %1, ptr noundef readonly captures(none) %2, i64 noundef %3) #3 {
  %5 = icmp sgt i64 %3, 0
  br i1 %5, label %.lr.ph, label %._crit_edge

.lr.ph:                                           ; preds = %4, %.lr.ph
  %indvars.iv = phi i64 [ %indvars.iv.next, %.lr.ph ], [ 0, %4 ]
  %6 = getelementptr inbounds nuw i32, ptr %2, i64 %indvars.iv
  %7 = load i32, ptr %6, align 4, !tbaa !23
  %8 = sext i32 %7 to i64
  %9 = mul nsw i64 %8, 5931520
  %10 = add nsw i64 %9, 4194304
  %11 = lshr i64 %10, 23
  %12 = trunc i64 %11 to i32
  %13 = getelementptr inbounds nuw i32, ptr %0, i64 %indvars.iv
  %14 = load i32, ptr %13, align 4, !tbaa !23
  %15 = sub nsw i32 %14, %12
  store i32 %15, ptr %13, align 4, !tbaa !23
  %16 = getelementptr inbounds nuw i32, ptr %1, i64 %indvars.iv
  %17 = load i32, ptr %16, align 4, !tbaa !23
  %18 = sub nsw i32 %17, %12
  store i32 %18, ptr %16, align 4, !tbaa !23
  %indvars.iv.next = add nuw nsw i64 %indvars.iv, 1
  %exitcond.not = icmp eq i64 %indvars.iv.next, %3
  br i1 %exitcond.not, label %._crit_edge, label %.lr.ph, !llvm.loop !61

._crit_edge:                                      ; preds = %.lr.ph, %4
  ret void
}